; ModuleID = '52/4743.c'
source_filename = "52/4743.c"
target datalayout = "e-m:e-p270:32:32-p271:32:32-p272:64:64-i64:64-f80:128-n8:16:32:64-S128"
target triple = "x86_64-pc-linux-gnu"

@.str = private unnamed_addr constant [5 x i8] c"%d%d\00", align 1
@.str.1 = private unnamed_addr constant [3 x i8] c"%d\00", align 1
@.str.2 = private unnamed_addr constant [4 x i8] c"%d \00", align 1

; Function Attrs: noinline nounwind uwtable
define dso_local i32 @main(i32 %0, i8** %1) #0 {
  %3 = alloca i32, align 4
  %4 = alloca i32, align 4
  %5 = alloca i8**, align 8
  %6 = alloca i32*, align 8
  %7 = alloca i32*, align 8
  %8 = alloca i32*, align 8
  %9 = alloca i32*, align 8
  %10 = alloca i32*, align 8
  %11 = alloca i32, align 4
  %12 = alloca i32, align 4
  %13 = alloca i32, align 4
  store i32 0, i32* %3, align 4
  store i32 %0, i32* %4, align 4
  store i8** %1, i8*** %5, align 8
  %14 = call i32 (i8*, ...) @__isoc99_scanf(i8* getelementptr inbounds ([5 x i8], [5 x i8]* @.str, i64 0, i64 0), i32* %12, i32* %13)
  %15 = load i32, i32* %12, align 4
  %16 = sext i32 %15 to i64
  %17 = mul i64 4, %16
  %18 = call noalias i8* @malloc(i64 %17) #3
  %19 = bitcast i8* %18 to i32*
  store i32* %19, i32** %6, align 8
  %20 = load i32*, i32** %6, align 8
  store i32* %20, i32** %7, align 8
  %21 = load i32*, i32** %6, align 8
  store i32* %21, i32** %8, align 8
  %22 = load i32*, i32** %6, align 8
  store i32* %22, i32** %9, align 8
  store i32 0, i32* %11, align 4
  br label %23

23:                                               ; preds = %30, %2
  %24 = load i32, i32* %11, align 4
  %25 = load i32, i32* %12, align 4
  %26 = icmp slt i32 %24, %25
  br i1 %26, label %27, label %35

27:                                               ; preds = %23
  %28 = load i32*, i32** %8, align 8
  %29 = call i32 (i8*, ...) @__isoc99_scanf(i8* getelementptr inbounds ([3 x i8], [3 x i8]* @.str.1, i64 0, i64 0), i32* %28)
  br label %30

30:                                               ; preds = %27
  %31 = load i32, i32* %11, align 4
  %32 = add nsw i32 %31, 1
  store i32 %32, i32* %11, align 4
  %33 = load i32*, i32** %8, align 8
  %34 = getelementptr inbounds i32, i32* %33, i32 1
  store i32* %34, i32** %8, align 8
  br label %23

35:                                               ; preds = %23
  %36 = load i32, i32* %12, align 4
  %37 = load i32, i32* %13, align 4
  %38 = sub nsw i32 %36, %37
  %39 = load i32*, i32** %7, align 8
  %40 = sext i32 %38 to i64
  %41 = getelementptr inbounds i32, i32* %39, i64 %40
  store i32* %41, i32** %7, align 8
  %42 = load i32*, i32** %7, align 8
  store i32* %42, i32** %10, align 8
  br label %43

43:                                               ; preds = %51, %35
  %44 = load i32*, i32** %7, align 8
  %45 = load i32*, i32** %8, align 8
  %46 = icmp ult i32* %44, %45
  br i1 %46, label %47, label %54

47:                                               ; preds = %43
  %48 = load i32*, i32** %7, align 8
  %49 = load i32, i32* %48, align 4
  %50 = call i32 (i8*, ...) @printf(i8* getelementptr inbounds ([4 x i8], [4 x i8]* @.str.2, i64 0, i64 0), i32 %49)
  br label %51

51:                                               ; preds = %47
  %52 = load i32*, i32** %7, align 8
  %53 = getelementptr inbounds i32, i32* %52, i32 1
  store i32* %53, i32** %7, align 8
  br label %43

54:                                               ; preds = %43
  br label %55

55:                                               ; preds = %64, %54
  %56 = load i32*, i32** %9, align 8
  %57 = load i32*, i32** %10, align 8
  %58 = getelementptr inbounds i32, i32* %57, i64 -1
  %59 = icmp ult i32* %56, %58
  br i1 %59, label %60, label %67

60:                                               ; preds = %55
  %61 = load i32*, i32** %9, align 8
  %62 = load i32, i32* %61, align 4
  %63 = call i32 (i8*, ...) @printf(i8* getelementptr inbounds ([4 x i8], [4 x i8]* @.str.2, i64 0, i64 0), i32 %62)
  br label %64

64:                                               ; preds = %60
  %65 = load i32*, i32** %9, align 8
  %66 = getelementptr inbounds i32, i32* %65, i32 1
  store i32* %66, i32** %9, align 8
  br label %55

67:                                               ; preds = %55
  %68 = load i32*, i32** %9, align 8
  %69 = load i32, i32* %68, align 4
  %70 = call i32 (i8*, ...) @printf(i8* getelementptr inbounds ([3 x i8], [3 x i8]* @.str.1, i64 0, i64 0), i32 %69)
  %71 = load i32*, i32** %6, align 8
  %72 = bitcast i32* %71 to i8*
  call void @free(i8* %72) #3
  ret i32 0
}

declare dso_local i32 @__isoc99_scanf(i8*, ...) #1

; Function Attrs: nounwind
declare dso_local noalias i8* @malloc(i64) #2

declare dso_local i32 @printf(i8*, ...) #1

; Function Attrs: nounwind
declare dso_local void @free(i8*) #2


!llvm.module.flags = !{!0}
!llvm.ident = !{!1}

!0 = !{i32 1, !"wchar_size", i32 4}
!1 = !{!"clang version 10.0.0-4ubuntu1 "}
